; Function Attrs: nounwind uwtable
define hidden void @zim_RegexIterator_getMode(ptr nocapture noundef readonly %0, ptr nocapture noundef writeonly %1) #0 {
  %3 = getelementptr inbounds i8, ptr %0, i64 44
  %4 = load i32, ptr %3, align 4
  %.not = icmp eq i32 %4, 0
  br i1 %.not, label %.critedge, label %5

5:                                                ; preds = %2
  tail call void @zend_wrong_parameters_none_error() #10
  %6 = load ptr, ptr getelementptr inbounds (%struct._zend_executor_globals, ptr @executor_globals, i64 0, i32 50), align 8
  %7 = icmp ne ptr %6, null
  tail call void @llvm.assume(i1 %7)
  br label %21

.critedge:                                        ; preds = %2
  %8 = getelementptr inbounds i8, ptr %0, i64 32
  %9 = load ptr, ptr %8, align 8
  %10 = getelementptr inbounds i8, ptr %9, i64 -56
  %11 = load i32, ptr %10, align 8
  %12 = icmp eq i32 %11, -1
  br i1 %12, label %13, label %16

13:                                               ; preds = %.critedge
  tail call void (ptr, ptr, ...) @zend_throw_error(ptr noundef null, ptr noundef nonnull @.str) #10
  %14 = load ptr, ptr getelementptr inbounds (%struct._zend_executor_globals, ptr @executor_globals, i64 0, i32 50), align 8
  %15 = icmp ne ptr %14, null
  tail call void @llvm.assume(i1 %15)
  br label %21

16:                                               ; preds = %.critedge
  %17 = getelementptr inbounds i8, ptr %9, i64 -16
  %18 = load i32, ptr %17, align 8
  %19 = zext i32 %18 to i64
  store i64 %19, ptr %1, align 8
  %20 = getelementptr inbounds i8, ptr %1, i64 8
  store i32 4, ptr %20, align 8
  br label %21

21:                                               ; preds = %16, %13, %5
  ret void
}